; Function Attrs: nounwind uwtable
define void @lv_subject_snprintf(ptr noundef %0, ptr noundef %1, ...) local_unnamed_addr #0 {
  %3 = alloca [1 x %struct.__va_list_tag], align 16
  %4 = getelementptr inbounds nuw i8, ptr %0, i64 48
  %5 = load i32, ptr %4, align 8
  %6 = and i32 %5, 15
  %.not = icmp eq i32 %6, 6
  br i1 %.not, label %7, label %39

7:                                                ; preds = %2
  %8 = lshr i32 %5, 4
  %9 = and i32 %8, 16777215
  %10 = icmp eq i32 %9, 0
  br i1 %10, label %39, label %11

11:                                               ; preds = %7
  %12 = getelementptr inbounds nuw i8, ptr %0, i64 32
  %13 = load ptr, ptr %12, align 8, !tbaa !3
  %.not11 = icmp eq ptr %13, null
  br i1 %.not11, label %19, label %14

14:                                               ; preds = %11
  %15 = getelementptr inbounds nuw i8, ptr %0, i64 24
  %16 = load ptr, ptr %15, align 8, !tbaa !3
  %17 = zext nneg i32 %9 to i64
  %18 = tail call i64 @lv_strlcpy(ptr noundef nonnull %13, ptr noundef %16, i64 noundef %17) #9
  br label %19

19:                                               ; preds = %14, %11
  call void @llvm.lifetime.start.p0(i64 24, ptr nonnull %3) #9
  call void @llvm.va_start.p0(ptr nonnull %3)
  %20 = getelementptr inbounds nuw i8, ptr %0, i64 24
  %21 = load ptr, ptr %20, align 8, !tbaa !3
  %22 = load i32, ptr %4, align 8
  %23 = lshr i32 %22, 4
  %24 = and i32 %23, 16777215
  %25 = zext nneg i32 %24 to i64
  %26 = call i32 @lv_vsnprintf(ptr noundef %21, i64 noundef %25, ptr noundef %1, ptr noundef nonnull %3) #9
  call void @llvm.va_end.p0(ptr nonnull %3)
  %27 = load i32, ptr %4, align 8
  %28 = and i32 %27, 15
  switch i32 %28, label %lv_subject_notify_if_changed.exit [
    i32 6, label %34
    i32 4, label %32
    i32 2, label %29
    i32 5, label %.sink.split.i
    i32 3, label %.sink.split.i
  ]

29:                                               ; preds = %19
  %30 = load i32, ptr %20, align 8, !tbaa !3
  %31 = load i32, ptr %12, align 8, !tbaa !3
  %.not.i = icmp eq i32 %30, %31
  br i1 %.not.i, label %lv_subject_notify_if_changed.exit, label %.sink.split.i

32:                                               ; preds = %19
  %.0.copyload1.i = load i24, ptr %20, align 8
  %.0.copyload.i = load i24, ptr %12, align 8
  %33 = call zeroext i1 @lv_color_eq(i24 %.0.copyload1.i, i24 %.0.copyload.i) #9
  br i1 %33, label %lv_subject_notify_if_changed.exit, label %.sink.split.i

34:                                               ; preds = %19
  %35 = load ptr, ptr %12, align 8, !tbaa !3
  %.not14.i = icmp eq ptr %35, null
  br i1 %.not14.i, label %.sink.split.i, label %36

36:                                               ; preds = %34
  %37 = load ptr, ptr %20, align 8, !tbaa !3
  %38 = call i32 @lv_strcmp(ptr noundef %37, ptr noundef nonnull %35) #9
  %.not15.i = icmp eq i32 %38, 0
  br i1 %.not15.i, label %lv_subject_notify_if_changed.exit, label %.sink.split.i

.sink.split.i:                                    ; preds = %36, %34, %32, %29, %19, %19
  call void @lv_subject_notify(ptr noundef nonnull %0)
  br label %lv_subject_notify_if_changed.exit

lv_subject_notify_if_changed.exit:                ; preds = %19, %29, %32, %36, %.sink.split.i
  call void @llvm.lifetime.end.p0(i64 24, ptr nonnull %3) #9
  br label %39

39:                                               ; preds = %7, %2, %lv_subject_notify_if_changed.exit
  ret void
}